target datalayout = "e-m:e-p270:32:32-p271:32:32-p272:64:64-i64:64-i128:128-f80:128-n8:16:32:64-S128"
target triple = "x86_64-pc-linux-gnu"

%"class.ncnn::Net" = type { ptr, %"class.ncnn::Option", ptr }
%"class.ncnn::Option" = type { i8, i32, ptr, ptr, i32, i8, i8, i8, i8, i8, i8, i8, i8, i8, i8, i8, i8, i8, i8, i8, i8, i8, i8, i8, i8, i32, i8, i8, i8, i8, i8, i8, i8, i8, i8, i8, i8, i8 }
%"class.ncnn::NetPrivate" = type { ptr, %"class.std::vector", %"class.std::vector.0", %"class.std::vector.5", %"class.std::vector.5", %"class.std::vector.10", %"class.std::vector.10", %"class.std::vector.15", %"class.std::vector.20", ptr, ptr }
%"class.std::vector" = type { %"struct.std::_Vector_base" }
%"struct.std::_Vector_base" = type { %"struct.std::_Vector_base<ncnn::Blob, std::allocator<ncnn::Blob>>::_Vector_impl" }
%"struct.std::_Vector_base<ncnn::Blob, std::allocator<ncnn::Blob>>::_Vector_impl" = type { %"struct.std::_Vector_base<ncnn::Blob, std::allocator<ncnn::Blob>>::_Vector_impl_data" }
%"struct.std::_Vector_base<ncnn::Blob, std::allocator<ncnn::Blob>>::_Vector_impl_data" = type { ptr, ptr, ptr }
%"class.std::vector.0" = type { %"struct.std::_Vector_base.1" }
%"struct.std::_Vector_base.1" = type { %"struct.std::_Vector_base<ncnn::Layer *, std::allocator<ncnn::Layer *>>::_Vector_impl" }
%"struct.std::_Vector_base<ncnn::Layer *, std::allocator<ncnn::Layer *>>::_Vector_impl" = type { %"struct.std::_Vector_base<ncnn::Layer *, std::allocator<ncnn::Layer *>>::_Vector_impl_data" }
%"struct.std::_Vector_base<ncnn::Layer *, std::allocator<ncnn::Layer *>>::_Vector_impl_data" = type { ptr, ptr, ptr }
%"class.std::vector.5" = type { %"struct.std::_Vector_base.6" }
%"struct.std::_Vector_base.6" = type { %"struct.std::_Vector_base<int, std::allocator<int>>::_Vector_impl" }
%"struct.std::_Vector_base<int, std::allocator<int>>::_Vector_impl" = type { %"struct.std::_Vector_base<int, std::allocator<int>>::_Vector_impl_data" }
%"struct.std::_Vector_base<int, std::allocator<int>>::_Vector_impl_data" = type { ptr, ptr, ptr }
%"class.std::vector.10" = type { %"struct.std::_Vector_base.11" }
%"struct.std::_Vector_base.11" = type { %"struct.std::_Vector_base<const char *, std::allocator<const char *>>::_Vector_impl" }
%"struct.std::_Vector_base<const char *, std::allocator<const char *>>::_Vector_impl" = type { %"struct.std::_Vector_base<const char *, std::allocator<const char *>>::_Vector_impl_data" }
%"struct.std::_Vector_base<const char *, std::allocator<const char *>>::_Vector_impl_data" = type { ptr, ptr, ptr }
%"class.std::vector.15" = type { %"struct.std::_Vector_base.16" }
%"struct.std::_Vector_base.16" = type { %"struct.std::_Vector_base<ncnn::custom_layer_registry_entry, std::allocator<ncnn::custom_layer_registry_entry>>::_Vector_impl" }
%"struct.std::_Vector_base<ncnn::custom_layer_registry_entry, std::allocator<ncnn::custom_layer_registry_entry>>::_Vector_impl" = type { %"struct.std::_Vector_base<ncnn::custom_layer_registry_entry, std::allocator<ncnn::custom_layer_registry_entry>>::_Vector_impl_data" }
%"struct.std::_Vector_base<ncnn::custom_layer_registry_entry, std::allocator<ncnn::custom_layer_registry_entry>>::_Vector_impl_data" = type { ptr, ptr, ptr }
%"class.std::vector.20" = type { %"struct.std::_Vector_base.21" }
%"struct.std::_Vector_base.21" = type { %"struct.std::_Vector_base<ncnn::overwrite_builtin_layer_registry_entry, std::allocator<ncnn::overwrite_builtin_layer_registry_entry>>::_Vector_impl" }
%"struct.std::_Vector_base<ncnn::overwrite_builtin_layer_registry_entry, std::allocator<ncnn::overwrite_builtin_layer_registry_entry>>::_Vector_impl" = type { %"struct.std::_Vector_base<ncnn::overwrite_builtin_layer_registry_entry, std::allocator<ncnn::overwrite_builtin_layer_registry_entry>>::_Vector_impl_data" }
%"struct.std::_Vector_base<ncnn::overwrite_builtin_layer_registry_entry, std::allocator<ncnn::overwrite_builtin_layer_registry_entry>>::_Vector_impl_data" = type { ptr, ptr, ptr }
%"class.std::__cxx11::basic_string" = type { %"struct.std::__cxx11::basic_string<char>::_Alloc_hider", i64, %union.anon }
%"struct.std::__cxx11::basic_string<char>::_Alloc_hider" = type { ptr }
%union.anon = type { i64, [8 x i8] }
%"class.std::vector.28" = type { %"struct.std::_Vector_base.29" }
%"struct.std::_Vector_base.29" = type { %"struct.std::_Vector_base<ncnn::Mat, std::allocator<ncnn::Mat>>::_Vector_impl" }
%"struct.std::_Vector_base<ncnn::Mat, std::allocator<ncnn::Mat>>::_Vector_impl" = type { %"struct.std::_Vector_base<ncnn::Mat, std::allocator<ncnn::Mat>>::_Vector_impl_data" }
%"struct.std::_Vector_base<ncnn::Mat, std::allocator<ncnn::Mat>>::_Vector_impl_data" = type { ptr, ptr, ptr }
%"class.ncnn::Mat" = type { ptr, ptr, i64, i32, ptr, i32, i32, i32, i32, i32, i64 }
%"class.ncnn::Blob" = type { %"class.std::__cxx11::basic_string", i32, i32, %"class.ncnn::Mat" }
%"class.ncnn::Extractor" = type { ptr, ptr }
%"class.ncnn::ExtractorPrivate" = type { ptr, %"class.std::vector.28", %"class.ncnn::Option" }

@stderr = external global ptr, align 8
@.str.3 = private unnamed_addr constant [2 x i8] c"\0A\00", align 1
@.str.46 = private unnamed_addr constant [34 x i8] c"find_blob_index_by_name %s failed\00", align 1
@.str.50 = private unnamed_addr constant [4 x i8] c"Try\00", align 1
@.str.52 = private unnamed_addr constant [29 x i8] c"    ex.extract(\22%s\22, out%d);\00", align 1

; Function Attrs: inlinehint mustprogress nounwind uwtable
define linkonce_odr noundef zeroext i1 @_ZSteqIcSt11char_traitsIcESaIcEEbRKNSt7__cxx1112basic_stringIT_T0_T1_EEPKS5_(ptr noundef nonnull align 8 dereferenceable(32) %0, ptr noundef %1) #10 comdat {
  %3 = alloca ptr, align 8
  %4 = alloca ptr, align 8
  store ptr %0, ptr %3, align 8, !tbaa !254
  store ptr %1, ptr %4, align 8, !tbaa !9
  %5 = load ptr, ptr %3, align 8, !tbaa !254
  %6 = load ptr, ptr %4, align 8, !tbaa !9
  %7 = call noundef i32 @_ZNKSt7__cxx1112basic_stringIcSt11char_traitsIcESaIcEE7compareEPKc(ptr noundef nonnull align 8 dereferenceable(32) %5, ptr noundef %6) #16
  %8 = icmp eq i32 %7, 0
  ret i1 %8
}

; Function Attrs: mustprogress nounwind uwtable
define linkonce_odr hidden noundef nonnull align 8 dereferenceable(112) ptr @_ZNSt6vectorIN4ncnn4BlobESaIS1_EEixEm(ptr noundef nonnull align 8 dereferenceable(24) %0, i64 noundef %1) #0 comdat align 2 {
  %3 = alloca ptr, align 8
  %4 = alloca i64, align 8
  store ptr %0, ptr %3, align 8, !tbaa !86
  store i64 %1, ptr %4, align 8, !tbaa !18
  %5 = load ptr, ptr %3, align 8
  %6 = getelementptr inbounds nuw %"struct.std::_Vector_base", ptr %5, i32 0, i32 0
  %7 = getelementptr inbounds nuw %"struct.std::_Vector_base<ncnn::Blob, std::allocator<ncnn::Blob>>::_Vector_impl_data", ptr %6, i32 0, i32 0
  %8 = load ptr, ptr %7, align 8, !tbaa !106
  %9 = load i64, ptr %4, align 8, !tbaa !18
  %10 = getelementptr inbounds nuw %"class.ncnn::Blob", ptr %8, i64 %9
  ret ptr %10
}

; Function Attrs: mustprogress nounwind uwtable
define linkonce_odr hidden noundef i64 @_ZNKSt6vectorIN4ncnn4BlobESaIS1_EE4sizeEv(ptr noundef nonnull align 8 dereferenceable(24) %0) #0 comdat align 2 {
  %2 = alloca ptr, align 8
  store ptr %0, ptr %2, align 8, !tbaa !86
  %3 = load ptr, ptr %2, align 8
  %4 = getelementptr inbounds nuw %"struct.std::_Vector_base", ptr %3, i32 0, i32 0
  %5 = getelementptr inbounds nuw %"struct.std::_Vector_base<ncnn::Blob, std::allocator<ncnn::Blob>>::_Vector_impl_data", ptr %4, i32 0, i32 1
  %6 = load ptr, ptr %5, align 8, !tbaa !107
  %7 = getelementptr inbounds nuw %"struct.std::_Vector_base", ptr %3, i32 0, i32 0
  %8 = getelementptr inbounds nuw %"struct.std::_Vector_base<ncnn::Blob, std::allocator<ncnn::Blob>>::_Vector_impl_data", ptr %7, i32 0, i32 0
  %9 = load ptr, ptr %8, align 8, !tbaa !106
  %10 = ptrtoint ptr %6 to i64
  %11 = ptrtoint ptr %9 to i64
  %12 = sub i64 %10, %11
  %13 = sdiv exact i64 %12, 112
  ret i64 %13
}

; Function Attrs: mustprogress nounwind uwtable
define linkonce_odr hidden noundef nonnull align 8 dereferenceable(8) ptr @_ZNKSt6vectorIPKcSaIS1_EEixEm(ptr noundef nonnull align 8 dereferenceable(24) %0, i64 noundef %1) #0 comdat align 2 {
  %3 = alloca ptr, align 8
  %4 = alloca i64, align 8
  store ptr %0, ptr %3, align 8, !tbaa !92
  store i64 %1, ptr %4, align 8, !tbaa !18
  %5 = load ptr, ptr %3, align 8
  %6 = getelementptr inbounds nuw %"struct.std::_Vector_base.11", ptr %5, i32 0, i32 0
  %7 = getelementptr inbounds nuw %"struct.std::_Vector_base<const char *, std::allocator<const char *>>::_Vector_impl_data", ptr %6, i32 0, i32 0
  %8 = load ptr, ptr %7, align 8, !tbaa !145
  %9 = load i64, ptr %4, align 8, !tbaa !18
  %10 = getelementptr inbounds nuw ptr, ptr %8, i64 %9
  ret ptr %10
}

; Function Attrs: mustprogress nounwind uwtable
define linkonce_odr hidden noundef i64 @_ZNKSt6vectorIPKcSaIS1_EE4sizeEv(ptr noundef nonnull align 8 dereferenceable(24) %0) #0 comdat align 2 {
  %2 = alloca ptr, align 8
  store ptr %0, ptr %2, align 8, !tbaa !92
  %3 = load ptr, ptr %2, align 8
  %4 = getelementptr inbounds nuw %"struct.std::_Vector_base.11", ptr %3, i32 0, i32 0
  %5 = getelementptr inbounds nuw %"struct.std::_Vector_base<const char *, std::allocator<const char *>>::_Vector_impl_data", ptr %4, i32 0, i32 1
  %6 = load ptr, ptr %5, align 8, !tbaa !146
  %7 = getelementptr inbounds nuw %"struct.std::_Vector_base.11", ptr %3, i32 0, i32 0
  %8 = getelementptr inbounds nuw %"struct.std::_Vector_base<const char *, std::allocator<const char *>>::_Vector_impl_data", ptr %7, i32 0, i32 0
  %9 = load ptr, ptr %8, align 8, !tbaa !145
  %10 = ptrtoint ptr %6 to i64
  %11 = ptrtoint ptr %9 to i64
  %12 = sub i64 %10, %11
  %13 = sdiv exact i64 %12, 8
  ret i64 %13
}

; Function Attrs: mustprogress nounwind uwtable
define hidden noundef nonnull align 8 dereferenceable(24) ptr @_ZNK4ncnn3Net12output_namesEv(ptr noundef nonnull align 8 dereferenceable(80) %0) #0 align 2 {
  %2 = alloca ptr, align 8
  store ptr %0, ptr %2, align 8, !tbaa !4
  %3 = load ptr, ptr %2, align 8
  %4 = getelementptr inbounds nuw %"class.ncnn::Net", ptr %3, i32 0, i32 2
  %5 = load ptr, ptr %4, align 8, !tbaa !11
  %6 = getelementptr inbounds nuw %"class.ncnn::NetPrivate", ptr %5, i32 0, i32 6
  ret ptr %6
}

; Function Attrs: mustprogress uwtable
define hidden noundef i32 @_ZNK4ncnn3Net23find_blob_index_by_nameEPKc(ptr noundef nonnull align 8 dereferenceable(80) %0, ptr noundef %1) #1 align 2 {
  %3 = alloca i32, align 4
  %4 = alloca ptr, align 8
  %5 = alloca ptr, align 8
  %6 = alloca i64, align 8
  %7 = alloca i32, align 4
  %8 = alloca ptr, align 8
  store ptr %0, ptr %4, align 8, !tbaa !4
  store ptr %1, ptr %5, align 8, !tbaa !9
  %9 = load ptr, ptr %4, align 8
  call void @llvm.lifetime.start.p0(i64 8, ptr %6) #16
  store i64 0, ptr %6, align 8, !tbaa !18
  br label %10

10:                                               ; preds = %35, %2
  %11 = load i64, ptr %6, align 8, !tbaa !18
  %12 = getelementptr inbounds nuw %"class.ncnn::Net", ptr %9, i32 0, i32 2
  %13 = load ptr, ptr %12, align 8, !tbaa !11
  %14 = getelementptr inbounds nuw %"class.ncnn::NetPrivate", ptr %13, i32 0, i32 1
  %15 = call noundef i64 @_ZNKSt6vectorIN4ncnn4BlobESaIS1_EE4sizeEv(ptr noundef nonnull align 8 dereferenceable(24) %14) #16
  %16 = icmp ult i64 %11, %15
  br i1 %16, label %18, label %17

17:                                               ; preds = %10
  store i32 2, ptr %7, align 4
  br label %38

18:                                               ; preds = %10
  call void @llvm.lifetime.start.p0(i64 8, ptr %8) #16
  %19 = getelementptr inbounds nuw %"class.ncnn::Net", ptr %9, i32 0, i32 2
  %20 = load ptr, ptr %19, align 8, !tbaa !11
  %21 = getelementptr inbounds nuw %"class.ncnn::NetPrivate", ptr %20, i32 0, i32 1
  %22 = load i64, ptr %6, align 8, !tbaa !18
  %23 = call noundef nonnull align 8 dereferenceable(112) ptr @_ZNSt6vectorIN4ncnn4BlobESaIS1_EEixEm(ptr noundef nonnull align 8 dereferenceable(24) %21, i64 noundef %22) #16
  store ptr %23, ptr %8, align 8, !tbaa !273
  %24 = load ptr, ptr %8, align 8, !tbaa !273
  %25 = getelementptr inbounds nuw %"class.ncnn::Blob", ptr %24, i32 0, i32 0
  %26 = load ptr, ptr %5, align 8, !tbaa !9
  %27 = call noundef zeroext i1 @_ZSteqIcSt11char_traitsIcESaIcEEbRKNSt7__cxx1112basic_stringIT_T0_T1_EEPKS5_(ptr noundef nonnull align 8 dereferenceable(32) %25, ptr noundef %26)
  br i1 %27, label %28, label %31

28:                                               ; preds = %18
  %29 = load i64, ptr %6, align 8, !tbaa !18
  %30 = trunc i64 %29 to i32
  store i32 %30, ptr %3, align 4
  store i32 1, ptr %7, align 4
  br label %32

31:                                               ; preds = %18
  store i32 0, ptr %7, align 4
  br label %32

32:                                               ; preds = %31, %28
  call void @llvm.lifetime.end.p0(i64 8, ptr %8) #16
  %33 = load i32, ptr %7, align 4
  switch i32 %33, label %38 [
    i32 0, label %34
  ]

34:                                               ; preds = %32
  br label %35

35:                                               ; preds = %34
  %36 = load i64, ptr %6, align 8, !tbaa !18
  %37 = add i64 %36, 1
  store i64 %37, ptr %6, align 8, !tbaa !18
  br label %10, !llvm.loop !320

38:                                               ; preds = %32, %17
  call void @llvm.lifetime.end.p0(i64 8, ptr %6) #16
  %39 = load i32, ptr %7, align 4
  switch i32 %39, label %50 [
    i32 2, label %40
    i32 1, label %48
  ]

40:                                               ; preds = %38
  br label %41

41:                                               ; preds = %40
  %42 = load ptr, ptr @stderr, align 8, !tbaa !264
  %43 = load ptr, ptr %5, align 8, !tbaa !9
  %44 = call i32 (ptr, ptr, ...) @fprintf(ptr noundef %42, ptr noundef @.str.46, ptr noundef %43) #16
  %45 = load ptr, ptr @stderr, align 8, !tbaa !264
  %46 = call i32 (ptr, ptr, ...) @fprintf(ptr noundef %45, ptr noundef @.str.3) #16
  br label %47

47:                                               ; preds = %41
  store i32 -1, ptr %3, align 4
  br label %48

48:                                               ; preds = %47, %38
  %49 = load i32, ptr %3, align 4
  ret i32 %49

50:                                               ; preds = %38
  unreachable
}

; Function Attrs: mustprogress uwtable
define hidden noundef i32 @_ZN4ncnn9Extractor7extractEPKcRNS_3MatEi(ptr noundef nonnull align 8 dereferenceable(16) %0, ptr noundef %1, ptr noundef nonnull align 8 dereferenceable(72) %2, i32 noundef %3) #1 align 2 {
  %5 = alloca i32, align 4
  %6 = alloca ptr, align 8
  %7 = alloca ptr, align 8
  %8 = alloca ptr, align 8
  %9 = alloca i32, align 4
  %10 = alloca i32, align 4
  %11 = alloca ptr, align 8
  %12 = alloca i64, align 8
  %13 = alloca i32, align 4
  store ptr %0, ptr %6, align 8, !tbaa !51
  store ptr %1, ptr %7, align 8, !tbaa !9
  store ptr %2, ptr %8, align 8, !tbaa !188
  store i32 %3, ptr %9, align 4, !tbaa !26
  %14 = load ptr, ptr %6, align 8
  call void @llvm.lifetime.start.p0(i64 4, ptr %10) #16
  %15 = getelementptr inbounds nuw %"class.ncnn::Extractor", ptr %14, i32 0, i32 1
  %16 = load ptr, ptr %15, align 8, !tbaa !375
  %17 = getelementptr inbounds nuw %"class.ncnn::ExtractorPrivate", ptr %16, i32 0, i32 0
  %18 = load ptr, ptr %17, align 8, !tbaa !378
  %19 = load ptr, ptr %7, align 8, !tbaa !9
  %20 = call noundef i32 @_ZNK4ncnn3Net23find_blob_index_by_nameEPKc(ptr noundef nonnull align 8 dereferenceable(80) %18, ptr noundef %19)
  store i32 %20, ptr %10, align 4, !tbaa !26
  %21 = load i32, ptr %10, align 4, !tbaa !26
  %22 = icmp eq i32 %21, -1
  br i1 %22, label %23, label %60

23:                                               ; preds = %4
  br label %24

24:                                               ; preds = %23
  %25 = load ptr, ptr @stderr, align 8, !tbaa !264
  %26 = call i32 (ptr, ptr, ...) @fprintf(ptr noundef %25, ptr noundef @.str.50) #16
  %27 = load ptr, ptr @stderr, align 8, !tbaa !264
  %28 = call i32 (ptr, ptr, ...) @fprintf(ptr noundef %27, ptr noundef @.str.3) #16
  br label %29

29:                                               ; preds = %24
  br label %30

30:                                               ; preds = %29
  call void @llvm.lifetime.start.p0(i64 8, ptr %11) #16
  %31 = getelementptr inbounds nuw %"class.ncnn::Extractor", ptr %14, i32 0, i32 1
  %32 = load ptr, ptr %31, align 8, !tbaa !375
  %33 = getelementptr inbounds nuw %"class.ncnn::ExtractorPrivate", ptr %32, i32 0, i32 0
  %34 = load ptr, ptr %33, align 8, !tbaa !378
  %35 = call noundef nonnull align 8 dereferenceable(24) ptr @_ZNK4ncnn3Net12output_namesEv(ptr noundef nonnull align 8 dereferenceable(80) %34)
  store ptr %35, ptr %11, align 8, !tbaa !92
  call void @llvm.lifetime.start.p0(i64 8, ptr %12) #16
  store i64 0, ptr %12, align 8, !tbaa !18
  br label %36

36:                                               ; preds = %56, %30
  %37 = load i64, ptr %12, align 8, !tbaa !18
  %38 = load ptr, ptr %11, align 8, !tbaa !92
  %39 = call noundef i64 @_ZNKSt6vectorIPKcSaIS1_EE4sizeEv(ptr noundef nonnull align 8 dereferenceable(24) %38) #16
  %40 = icmp ult i64 %37, %39
  br i1 %40, label %42, label %41

41:                                               ; preds = %36
  call void @llvm.lifetime.end.p0(i64 8, ptr %12) #16
  br label %59

42:                                               ; preds = %36
  br label %43

43:                                               ; preds = %42
  %44 = load ptr, ptr @stderr, align 8, !tbaa !264
  %45 = load ptr, ptr %11, align 8, !tbaa !92
  %46 = load i64, ptr %12, align 8, !tbaa !18
  %47 = call noundef nonnull align 8 dereferenceable(8) ptr @_ZNKSt6vectorIPKcSaIS1_EEixEm(ptr noundef nonnull align 8 dereferenceable(24) %45, i64 noundef %46) #16
  %48 = load ptr, ptr %47, align 8, !tbaa !9
  %49 = load i64, ptr %12, align 8, !tbaa !18
  %50 = trunc i64 %49 to i32
  %51 = call i32 (ptr, ptr, ...) @fprintf(ptr noundef %44, ptr noundef @.str.52, ptr noundef %48, i32 noundef %50) #16
  %52 = load ptr, ptr @stderr, align 8, !tbaa !264
  %53 = call i32 (ptr, ptr, ...) @fprintf(ptr noundef %52, ptr noundef @.str.3) #16
  br label %54

54:                                               ; preds = %43
  br label %55

55:                                               ; preds = %54
  br label %56

56:                                               ; preds = %55
  %57 = load i64, ptr %12, align 8, !tbaa !18
  %58 = add i64 %57, 1
  store i64 %58, ptr %12, align 8, !tbaa !18
  br label %36, !llvm.loop !385

59:                                               ; preds = %41
  store i32 -1, ptr %5, align 4
  store i32 1, ptr %13, align 4
  call void @llvm.lifetime.end.p0(i64 8, ptr %11) #16
  br label %65

60:                                               ; preds = %4
  %61 = load i32, ptr %10, align 4, !tbaa !26
  %62 = load ptr, ptr %8, align 8, !tbaa !188
  %63 = load i32, ptr %9, align 4, !tbaa !26
  %64 = call noundef i32 @_ZN4ncnn9Extractor7extractEiRNS_3MatEi(ptr noundef nonnull align 8 dereferenceable(16) %14, i32 noundef %61, ptr noundef nonnull align 8 dereferenceable(72) %62, i32 noundef %63)
  store i32 %64, ptr %5, align 4
  store i32 1, ptr %13, align 4
  br label %65

65:                                               ; preds = %60, %59
  call void @llvm.lifetime.end.p0(i64 4, ptr %10) #16
  %66 = load i32, ptr %5, align 4
  ret i32 %66
}