; Function Attrs: mustprogress uwtable
define hidden noundef i32 @_ZN4ncnn9Extractor7extractEPKcRNS_3MatEi(ptr noundef nonnull readonly align 8 captures(none) dereferenceable(16) %0, ptr noundef %1, ptr noundef nonnull align 8 dereferenceable(72) %2, i32 noundef %3) local_unnamed_addr #2 align 2 {
  %5 = getelementptr inbounds nuw i8, ptr %0, i64 8
  %6 = load ptr, ptr %5, align 8, !tbaa !213
  %7 = load ptr, ptr %6, align 8, !tbaa !210
  %8 = getelementptr inbounds nuw i8, ptr %7, i64 72
  %9 = load ptr, ptr %8, align 8, !tbaa !7
  %10 = getelementptr inbounds nuw i8, ptr %9, i64 8
  %11 = getelementptr inbounds nuw i8, ptr %9, i64 16
  %12 = load ptr, ptr %11, align 8, !tbaa !119
  %13 = load ptr, ptr %10, align 8, !tbaa !65
  %.not.i = icmp eq ptr %12, %13
  br i1 %.not.i, label %_ZNK4ncnn3Net23find_blob_index_by_nameEPKc.exit.thread, label %.lr.ph.i

.lr.ph.i:                                         ; preds = %4, %18
  %14 = phi ptr [ %24, %18 ], [ %13, %4 ]
  %.01218.i = phi i64 [ %19, %18 ], [ 0, %4 ]
  %15 = getelementptr inbounds nuw %"class.ncnn::Blob", ptr %14, i64 %.01218.i
  %16 = tail call noundef i32 @_ZNKSt7__cxx1112basic_stringIcSt11char_traitsIcESaIcEE7compareEPKc(ptr noundef nonnull align 8 dereferenceable(32) %15, ptr noundef %1) #26
  %17 = icmp eq i32 %16, 0
  br i1 %17, label %_ZNK4ncnn3Net23find_blob_index_by_nameEPKc.exit, label %18

18:                                               ; preds = %.lr.ph.i
  %19 = add nuw i64 %.01218.i, 1
  %20 = load ptr, ptr %8, align 8, !tbaa !7
  %21 = getelementptr inbounds nuw i8, ptr %20, i64 8
  %22 = getelementptr inbounds nuw i8, ptr %20, i64 16
  %23 = load ptr, ptr %22, align 8, !tbaa !119
  %24 = load ptr, ptr %21, align 8, !tbaa !65
  %25 = ptrtoint ptr %23 to i64
  %26 = ptrtoint ptr %24 to i64
  %27 = sub i64 %25, %26
  %28 = sdiv exact i64 %27, 112
  %29 = icmp ult i64 %19, %28
  br i1 %29, label %.lr.ph.i, label %_ZNK4ncnn3Net23find_blob_index_by_nameEPKc.exit.thread, !llvm.loop !177

_ZNK4ncnn3Net23find_blob_index_by_nameEPKc.exit.thread: ; preds = %18, %4
  %30 = load ptr, ptr @stderr, align 8, !tbaa !157
  %31 = tail call i32 (ptr, ptr, ...) @fprintf(ptr noundef %30, ptr noundef nonnull @.str.46, ptr noundef %1) #33
  %32 = load ptr, ptr @stderr, align 8, !tbaa !157
  %fputc.i = tail call i32 @fputc(i32 10, ptr %32)
  br label %35

_ZNK4ncnn3Net23find_blob_index_by_nameEPKc.exit:  ; preds = %.lr.ph.i
  %33 = trunc i64 %.01218.i to i32
  %34 = icmp eq i32 %33, -1
  br i1 %34, label %35, label %62

35:                                               ; preds = %_ZNK4ncnn3Net23find_blob_index_by_nameEPKc.exit.thread, %_ZNK4ncnn3Net23find_blob_index_by_nameEPKc.exit
  %36 = load ptr, ptr @stderr, align 8, !tbaa !157
  %37 = tail call i64 @fwrite(ptr nonnull @.str.50, i64 3, i64 1, ptr %36) #32
  %38 = load ptr, ptr @stderr, align 8, !tbaa !157
  %fputc = tail call i32 @fputc(i32 10, ptr %38)
  %39 = load ptr, ptr %5, align 8, !tbaa !213
  %40 = load ptr, ptr %39, align 8, !tbaa !210
  %41 = getelementptr inbounds nuw i8, ptr %40, i64 72
  %42 = load ptr, ptr %41, align 8, !tbaa !7
  %43 = getelementptr inbounds nuw i8, ptr %42, i64 128
  %44 = getelementptr inbounds nuw i8, ptr %42, i64 136
  %45 = load ptr, ptr %44, align 8, !tbaa !127
  %46 = load ptr, ptr %43, align 8, !tbaa !124
  %.not = icmp eq ptr %45, %46
  br i1 %.not, label %.loopexit, label %.lr.ph

.lr.ph:                                           ; preds = %35, %.lr.ph
  %47 = phi ptr [ %56, %.lr.ph ], [ %46, %35 ]
  %.017 = phi i64 [ %54, %.lr.ph ], [ 0, %35 ]
  %48 = load ptr, ptr @stderr, align 8, !tbaa !157
  %49 = getelementptr inbounds nuw ptr, ptr %47, i64 %.017
  %50 = load ptr, ptr %49, align 8, !tbaa !130
  %51 = trunc i64 %.017 to i32
  %52 = tail call i32 (ptr, ptr, ...) @fprintf(ptr noundef %48, ptr noundef nonnull @.str.52, ptr noundef %50, i32 noundef %51) #33
  %53 = load ptr, ptr @stderr, align 8, !tbaa !157
  %fputc14 = tail call i32 @fputc(i32 10, ptr %53)
  %54 = add nuw i64 %.017, 1
  %55 = load ptr, ptr %44, align 8, !tbaa !127
  %56 = load ptr, ptr %43, align 8, !tbaa !124
  %57 = ptrtoint ptr %55 to i64
  %58 = ptrtoint ptr %56 to i64
  %59 = sub i64 %57, %58
  %60 = ashr exact i64 %59, 3
  %61 = icmp ult i64 %54, %60
  br i1 %61, label %.lr.ph, label %.loopexit, !llvm.loop !221

62:                                               ; preds = %_ZNK4ncnn3Net23find_blob_index_by_nameEPKc.exit
  %63 = tail call noundef i32 @_ZN4ncnn9Extractor7extractEiRNS_3MatEi(ptr noundef nonnull align 8 dereferenceable(16) %0, i32 noundef %33, ptr noundef nonnull align 8 dereferenceable(72) %2, i32 noundef %3)
  br label %.loopexit

.loopexit:                                        ; preds = %.lr.ph, %35, %62
  %.012 = phi i32 [ %63, %62 ], [ -1, %35 ], [ -1, %.lr.ph ]
  ret i32 %.012
}